; ModuleID = '10/573.c'
source_filename = "10/573.c"
target datalayout = "e-m:e-p270:32:32-p271:32:32-p272:64:64-i64:64-f80:128-n8:16:32:64-S128"
target triple = "x86_64-pc-linux-gnu"

@.str = private unnamed_addr constant [3 x i8] c"%d\00", align 1
@.str.1 = private unnamed_addr constant [4 x i8] c"%d \00", align 1

; Function Attrs: noinline nounwind uwtable
define dso_local void @main() #0 {
  %1 = alloca i32, align 4
  %2 = alloca i32, align 4
  %3 = alloca i32, align 4
  %4 = alloca [25 x i32], align 16
  %5 = alloca [25 x i32], align 16
  %6 = call i32 (i8*, ...) @__isoc99_scanf(i8* getelementptr inbounds ([3 x i8], [3 x i8]* @.str, i64 0, i64 0), i32* %3)
  store i32 0, i32* %2, align 4
  br label %7

7:                                                ; preds = %19, %0
  %8 = load i32, i32* %2, align 4
  %9 = load i32, i32* %3, align 4
  %10 = icmp slt i32 %8, %9
  br i1 %10, label %11, label %22

11:                                               ; preds = %7
  %12 = load i32, i32* %2, align 4
  %13 = sext i32 %12 to i64
  %14 = getelementptr inbounds [25 x i32], [25 x i32]* %5, i64 0, i64 %13
  %15 = call i32 (i8*, ...) @__isoc99_scanf(i8* getelementptr inbounds ([4 x i8], [4 x i8]* @.str.1, i64 0, i64 0), i32* %14)
  %16 = load i32, i32* %2, align 4
  %17 = sext i32 %16 to i64
  %18 = getelementptr inbounds [25 x i32], [25 x i32]* %4, i64 0, i64 %17
  store i32 1, i32* %18, align 4
  br label %19

19:                                               ; preds = %11
  %20 = load i32, i32* %2, align 4
  %21 = add nsw i32 %20, 1
  store i32 %21, i32* %2, align 4
  br label %7

22:                                               ; preds = %7
  %23 = load i32, i32* %3, align 4
  %24 = sub nsw i32 %23, 2
  store i32 %24, i32* %2, align 4
  br label %25

25:                                               ; preds = %70, %22
  %26 = load i32, i32* %2, align 4
  %27 = icmp sge i32 %26, 0
  br i1 %27, label %28, label %73

28:                                               ; preds = %25
  %29 = load i32, i32* %3, align 4
  %30 = sub nsw i32 %29, 1
  store i32 %30, i32* %1, align 4
  br label %31

31:                                               ; preds = %66, %28
  %32 = load i32, i32* %1, align 4
  %33 = load i32, i32* %2, align 4
  %34 = add nsw i32 %33, 1
  %35 = icmp sge i32 %32, %34
  br i1 %35, label %36, label %69

36:                                               ; preds = %31
  %37 = load i32, i32* %2, align 4
  %38 = sext i32 %37 to i64
  %39 = getelementptr inbounds [25 x i32], [25 x i32]* %5, i64 0, i64 %38
  %40 = load i32, i32* %39, align 4
  %41 = load i32, i32* %1, align 4
  %42 = sext i32 %41 to i64
  %43 = getelementptr inbounds [25 x i32], [25 x i32]* %5, i64 0, i64 %42
  %44 = load i32, i32* %43, align 4
  %45 = icmp sge i32 %40, %44
  br i1 %45, label %46, label %65

46:                                               ; preds = %36
  %47 = load i32, i32* %2, align 4
  %48 = sext i32 %47 to i64
  %49 = getelementptr inbounds [25 x i32], [25 x i32]* %4, i64 0, i64 %48
  %50 = load i32, i32* %49, align 4
  %51 = load i32, i32* %1, align 4
  %52 = sext i32 %51 to i64
  %53 = getelementptr inbounds [25 x i32], [25 x i32]* %4, i64 0, i64 %52
  %54 = load i32, i32* %53, align 4
  %55 = icmp sle i32 %50, %54
  br i1 %55, label %56, label %65

56:                                               ; preds = %46
  %57 = load i32, i32* %1, align 4
  %58 = sext i32 %57 to i64
  %59 = getelementptr inbounds [25 x i32], [25 x i32]* %4, i64 0, i64 %58
  %60 = load i32, i32* %59, align 4
  %61 = add nsw i32 %60, 1
  %62 = load i32, i32* %2, align 4
  %63 = sext i32 %62 to i64
  %64 = getelementptr inbounds [25 x i32], [25 x i32]* %4, i64 0, i64 %63
  store i32 %61, i32* %64, align 4
  br label %65

65:                                               ; preds = %56, %46, %36
  br label %66

66:                                               ; preds = %65
  %67 = load i32, i32* %1, align 4
  %68 = add nsw i32 %67, -1
  store i32 %68, i32* %1, align 4
  br label %31

69:                                               ; preds = %31
  br label %70

70:                                               ; preds = %69
  %71 = load i32, i32* %2, align 4
  %72 = add nsw i32 %71, -1
  store i32 %72, i32* %2, align 4
  br label %25

73:                                               ; preds = %25
  store i32 1, i32* %1, align 4
  br label %74

74:                                               ; preds = %93, %73
  %75 = load i32, i32* %1, align 4
  %76 = load i32, i32* %3, align 4
  %77 = icmp slt i32 %75, %76
  br i1 %77, label %78, label %96

78:                                               ; preds = %74
  %79 = getelementptr inbounds [25 x i32], [25 x i32]* %4, i64 0, i64 0
  %80 = load i32, i32* %79, align 16
  %81 = load i32, i32* %1, align 4
  %82 = sext i32 %81 to i64
  %83 = getelementptr inbounds [25 x i32], [25 x i32]* %4, i64 0, i64 %82
  %84 = load i32, i32* %83, align 4
  %85 = icmp slt i32 %80, %84
  br i1 %85, label %86, label %92

86:                                               ; preds = %78
  %87 = load i32, i32* %1, align 4
  %88 = sext i32 %87 to i64
  %89 = getelementptr inbounds [25 x i32], [25 x i32]* %4, i64 0, i64 %88
  %90 = load i32, i32* %89, align 4
  %91 = getelementptr inbounds [25 x i32], [25 x i32]* %4, i64 0, i64 0
  store i32 %90, i32* %91, align 16
  br label %92

92:                                               ; preds = %86, %78
  br label %93

93:                                               ; preds = %92
  %94 = load i32, i32* %1, align 4
  %95 = add nsw i32 %94, 1
  store i32 %95, i32* %1, align 4
  br label %74

96:                                               ; preds = %74
  %97 = getelementptr inbounds [25 x i32], [25 x i32]* %4, i64 0, i64 0
  %98 = load i32, i32* %97, align 16
  %99 = call i32 (i8*, ...) @printf(i8* getelementptr inbounds ([3 x i8], [3 x i8]* @.str, i64 0, i64 0), i32 %98)
  ret void
}

declare dso_local i32 @__isoc99_scanf(i8*, ...) #1

declare dso_local i32 @printf(i8*, ...) #1


!llvm.module.flags = !{!0}
!llvm.ident = !{!1}

!0 = !{i32 1, !"wchar_size", i32 4}
!1 = !{!"clang version 10.0.0-4ubuntu1 "}
